target datalayout = "e-m:e-p270:32:32-p271:32:32-p272:64:64-i64:64-i128:128-f80:128-n8:16:32:64-S128"
target triple = "x86_64-pc-linux-gnu"

%"class.std::__cxx11::basic_string" = type { %"struct.std::__cxx11::basic_string<char>::_Alloc_hider", i64, %union.anon }
%"struct.std::__cxx11::basic_string<char>::_Alloc_hider" = type { ptr }
%union.anon = type { i64, [8 x i8] }
%"class.osgeo::proj::operation::PROJBasedOperation" = type <{ %"class.osgeo::proj::operation::SingleOperation.base", %"class.std::__cxx11::basic_string", %"class.std::shared_ptr", i8, [7 x i8], %"class.osgeo::proj::operation::CoordinateOperation" }>
%"class.osgeo::proj::operation::SingleOperation.base" = type { ptr, %"class.std::unique_ptr" }
%"class.std::unique_ptr" = type { %"struct.std::__uniq_ptr_data" }
%"struct.std::__uniq_ptr_data" = type { %"class.std::__uniq_ptr_impl" }
%"class.std::__uniq_ptr_impl" = type { %"class.std::tuple" }
%"class.std::tuple" = type { %"struct.std::_Tuple_impl" }
%"struct.std::_Tuple_impl" = type { %"struct.std::_Head_base.1" }
%"struct.std::_Head_base.1" = type { ptr }
%"class.std::shared_ptr" = type { %"class.std::__shared_ptr" }
%"class.std::__shared_ptr" = type { ptr, %"class.std::__shared_count" }
%"class.std::__shared_count" = type { ptr }
%"class.osgeo::proj::operation::CoordinateOperation" = type { %"class.osgeo::proj::common::ObjectUsage", %"class.osgeo::proj::io::IPROJStringExportable", %"class.osgeo::proj::io::IJSONExportable", %"class.std::unique_ptr.26" }
%"class.osgeo::proj::common::ObjectUsage" = type { %"class.osgeo::proj::common::IdentifiedObject", %"class.std::unique_ptr.18" }
%"class.osgeo::proj::common::IdentifiedObject" = type { %"class.osgeo::proj::util::BaseObject", %"class.osgeo::proj::util::IComparable", %"class.osgeo::proj::io::IWKTExportable", %"class.std::unique_ptr.10" }
%"class.osgeo::proj::util::BaseObject" = type { ptr, %"class.std::unique_ptr.2" }
%"class.std::unique_ptr.2" = type { %"struct.std::__uniq_ptr_data.3" }
%"struct.std::__uniq_ptr_data.3" = type { %"class.std::__uniq_ptr_impl.4" }
%"class.std::__uniq_ptr_impl.4" = type { %"class.std::tuple.5" }
%"class.std::tuple.5" = type { %"struct.std::_Tuple_impl.6" }
%"struct.std::_Tuple_impl.6" = type { %"struct.std::_Head_base.9" }
%"struct.std::_Head_base.9" = type { ptr }
%"class.osgeo::proj::util::IComparable" = type { ptr }
%"class.osgeo::proj::io::IWKTExportable" = type { ptr }
%"class.std::unique_ptr.10" = type { %"struct.std::__uniq_ptr_data.11" }
%"struct.std::__uniq_ptr_data.11" = type { %"class.std::__uniq_ptr_impl.12" }
%"class.std::__uniq_ptr_impl.12" = type { %"class.std::tuple.13" }
%"class.std::tuple.13" = type { %"struct.std::_Tuple_impl.14" }
%"struct.std::_Tuple_impl.14" = type { %"struct.std::_Head_base.17" }
%"struct.std::_Head_base.17" = type { ptr }
%"class.std::unique_ptr.18" = type { %"struct.std::__uniq_ptr_data.19" }
%"struct.std::__uniq_ptr_data.19" = type { %"class.std::__uniq_ptr_impl.20" }
%"class.std::__uniq_ptr_impl.20" = type { %"class.std::tuple.21" }
%"class.std::tuple.21" = type { %"struct.std::_Tuple_impl.22" }
%"struct.std::_Tuple_impl.22" = type { %"struct.std::_Head_base.25" }
%"struct.std::_Head_base.25" = type { ptr }
%"class.osgeo::proj::io::IPROJStringExportable" = type { ptr }
%"class.osgeo::proj::io::IJSONExportable" = type { ptr }
%"class.std::unique_ptr.26" = type { %"struct.std::__uniq_ptr_data.27" }
%"struct.std::__uniq_ptr_data.27" = type { %"class.std::__uniq_ptr_impl.28" }
%"class.std::__uniq_ptr_impl.28" = type { %"class.std::tuple.29" }
%"class.std::tuple.29" = type { %"struct.std::_Tuple_impl.30" }
%"struct.std::_Tuple_impl.30" = type { %"struct.std::_Head_base.33" }
%"struct.std::_Head_base.33" = type { ptr }
%"class.std::allocator" = type { i8 }

@_ZTIN5osgeo4proj2io16ParsingExceptionE = external constant ptr
@_ZTIN5osgeo4proj2io19FormattingExceptionE = external constant ptr
@.str.13 = private unnamed_addr constant [50 x i8] c"PROJBasedOperation::exportToPROJString() failed: \00", align 1

; Function Attrs: mustprogress nounwind uwtable
define linkonce_odr noundef ptr @_ZNKSt12__shared_ptrIN5osgeo4proj2io21IPROJStringExportableELN9__gnu_cxx12_Lock_policyE2EE3getEv(ptr noundef nonnull align 8 dereferenceable(16) %0) #0 comdat align 2 {
  %2 = alloca ptr, align 8
  store ptr %0, ptr %2, align 8
  %3 = load ptr, ptr %2, align 8
  %4 = getelementptr inbounds %"class.std::__shared_ptr", ptr %3, i32 0, i32 0
  %5 = load ptr, ptr %4, align 8
  ret ptr %5
}

; Function Attrs: mustprogress nounwind uwtable
define linkonce_odr noundef ptr @_ZNKSt19__shared_ptr_accessIN5osgeo4proj2io21IPROJStringExportableELN9__gnu_cxx12_Lock_policyE2ELb0ELb0EE6_M_getEv(ptr noundef nonnull align 1 dereferenceable(1) %0) #0 comdat align 2 {
  %2 = alloca ptr, align 8
  store ptr %0, ptr %2, align 8
  %3 = load ptr, ptr %2, align 8
  %4 = call noundef ptr @_ZNKSt12__shared_ptrIN5osgeo4proj2io21IPROJStringExportableELN9__gnu_cxx12_Lock_policyE2EE3getEv(ptr noundef nonnull align 8 dereferenceable(16) %3) #15
  ret ptr %4
}

; Function Attrs: mustprogress uwtable
define linkonce_odr void @_ZStplIcSt11char_traitsIcESaIcEENSt7__cxx1112basic_stringIT_T0_T1_EEOS8_PKS5_(ptr dead_on_unwind noalias writable sret(%"class.std::__cxx11::basic_string") align 8 %0, ptr noundef nonnull align 8 dereferenceable(32) %1, ptr noundef %2) #4 comdat {
  %4 = alloca ptr, align 8
  %5 = alloca ptr, align 8
  %6 = alloca ptr, align 8
  store ptr %0, ptr %4, align 8
  store ptr %1, ptr %5, align 8
  store ptr %2, ptr %6, align 8
  %7 = load ptr, ptr %5, align 8
  %8 = load ptr, ptr %6, align 8
  %9 = call noundef nonnull align 8 dereferenceable(32) ptr @_ZNSt7__cxx1112basic_stringIcSt11char_traitsIcESaIcEE6appendEPKc(ptr noundef nonnull align 8 dereferenceable(32) %7, ptr noundef %8)
  call void @_ZNSt7__cxx1112basic_stringIcSt11char_traitsIcESaIcEEC1EOS4_(ptr noundef nonnull align 8 dereferenceable(32) %0, ptr noundef nonnull align 8 dereferenceable(32) %9) #15
  ret void
}

; Function Attrs: mustprogress nounwind uwtable
define linkonce_odr noundef ptr @_ZNKSt19__shared_ptr_accessIN5osgeo4proj2io21IPROJStringExportableELN9__gnu_cxx12_Lock_policyE2ELb0ELb0EEptEv(ptr noundef nonnull align 1 dereferenceable(1) %0) #0 comdat align 2 {
  %2 = alloca ptr, align 8
  store ptr %0, ptr %2, align 8
  %3 = load ptr, ptr %2, align 8
  %4 = call noundef ptr @_ZNKSt19__shared_ptr_accessIN5osgeo4proj2io21IPROJStringExportableELN9__gnu_cxx12_Lock_policyE2ELb0ELb0EE6_M_getEv(ptr noundef nonnull align 1 dereferenceable(1) %3) #15
  ret ptr %4
}

; Function Attrs: mustprogress nounwind uwtable
define linkonce_odr noundef zeroext i1 @_ZNKSt12__shared_ptrIN5osgeo4proj2io21IPROJStringExportableELN9__gnu_cxx12_Lock_policyE2EEcvbEv(ptr noundef nonnull align 8 dereferenceable(16) %0) #0 comdat align 2 {
  %2 = alloca ptr, align 8
  store ptr %0, ptr %2, align 8
  %3 = load ptr, ptr %2, align 8
  %4 = getelementptr inbounds %"class.std::__shared_ptr", ptr %3, i32 0, i32 0
  %5 = load ptr, ptr %4, align 8
  %6 = icmp ne ptr %5, null
  ret i1 %6
}

; Function Attrs: mustprogress uwtable
define hidden void @_ZNK5osgeo4proj9operation18PROJBasedOperation19_exportToPROJStringEPNS0_2io19PROJStringFormatterE(ptr noundef nonnull align 8 dereferenceable(65) %0, ptr noundef %1) unnamed_addr #4 align 2 personality ptr @__gxx_personality_v0 {
  %3 = alloca ptr, align 8
  %4 = alloca ptr, align 8
  %5 = alloca ptr, align 8
  %6 = alloca i32, align 4
  %7 = alloca ptr, align 8
  %8 = alloca %"class.std::__cxx11::basic_string", align 8
  %9 = alloca %"class.std::__cxx11::basic_string", align 8
  %10 = alloca %"class.std::allocator", align 1
  %11 = alloca i1, align 1
  store ptr %0, ptr %3, align 8
  store ptr %1, ptr %4, align 8
  %12 = load ptr, ptr %3, align 8
  %13 = getelementptr inbounds %"class.osgeo::proj::operation::PROJBasedOperation", ptr %12, i32 0, i32 2
  %14 = call noundef zeroext i1 @_ZNKSt12__shared_ptrIN5osgeo4proj2io21IPROJStringExportableELN9__gnu_cxx12_Lock_policyE2EEcvbEv(ptr noundef nonnull align 8 dereferenceable(16) %13) #15
  br i1 %14, label %15, label %34

15:                                               ; preds = %2
  %16 = getelementptr inbounds %"class.osgeo::proj::operation::PROJBasedOperation", ptr %12, i32 0, i32 3
  %17 = load i8, ptr %16, align 8
  %18 = trunc i8 %17 to i1
  br i1 %18, label %19, label %21

19:                                               ; preds = %15
  %20 = load ptr, ptr %4, align 8
  call void @_ZN5osgeo4proj2io19PROJStringFormatter14startInversionEv(ptr noundef nonnull align 8 dereferenceable(8) %20)
  br label %21

21:                                               ; preds = %19, %15
  %22 = getelementptr inbounds %"class.osgeo::proj::operation::PROJBasedOperation", ptr %12, i32 0, i32 2
  %23 = call noundef ptr @_ZNKSt19__shared_ptr_accessIN5osgeo4proj2io21IPROJStringExportableELN9__gnu_cxx12_Lock_policyE2ELb0ELb0EEptEv(ptr noundef nonnull align 1 dereferenceable(1) %22) #15
  %24 = load ptr, ptr %4, align 8
  %25 = load ptr, ptr %23, align 8
  %26 = getelementptr inbounds ptr, ptr %25, i64 2
  %27 = load ptr, ptr %26, align 8
  call void %27(ptr noundef nonnull align 8 dereferenceable(8) %23, ptr noundef %24)
  %28 = getelementptr inbounds %"class.osgeo::proj::operation::PROJBasedOperation", ptr %12, i32 0, i32 3
  %29 = load i8, ptr %28, align 8
  %30 = trunc i8 %29 to i1
  br i1 %30, label %31, label %33

31:                                               ; preds = %21
  %32 = load ptr, ptr %4, align 8
  call void @_ZN5osgeo4proj2io19PROJStringFormatter13stopInversionEv(ptr noundef nonnull align 8 dereferenceable(8) %32)
  br label %33

33:                                               ; preds = %31, %21
  br label %76

34:                                               ; preds = %2
  %35 = load ptr, ptr %4, align 8
  %36 = getelementptr inbounds %"class.osgeo::proj::operation::PROJBasedOperation", ptr %12, i32 0, i32 1
  invoke void @_ZN5osgeo4proj2io19PROJStringFormatter16ingestPROJStringERKNSt7__cxx1112basic_stringIcSt11char_traitsIcESaIcEEE(ptr noundef nonnull align 8 dereferenceable(8) %35, ptr noundef nonnull align 8 dereferenceable(32) %36)
          to label %37 unwind label %38

37:                                               ; preds = %34
  br label %76

38:                                               ; preds = %34
  %39 = landingpad { ptr, i32 }
          catch ptr @_ZTIN5osgeo4proj2io16ParsingExceptionE
  %40 = extractvalue { ptr, i32 } %39, 0
  store ptr %40, ptr %5, align 8
  %41 = extractvalue { ptr, i32 } %39, 1
  store i32 %41, ptr %6, align 4
  br label %42

42:                                               ; preds = %38
  %43 = load i32, ptr %6, align 4
  %44 = call i32 @llvm.eh.typeid.for(ptr @_ZTIN5osgeo4proj2io16ParsingExceptionE) #15
  %45 = icmp eq i32 %43, %44
  br i1 %45, label %46, label %77

46:                                               ; preds = %42
  %47 = load ptr, ptr %5, align 8
  %48 = call ptr @__cxa_begin_catch(ptr %47) #15
  store ptr %48, ptr %7, align 8
  store i1 true, ptr %11, align 1
  %49 = call ptr @__cxa_allocate_exception(i64 40) #15
  call void @_ZNSaIcEC1Ev(ptr noundef nonnull align 1 dereferenceable(1) %10) #15
  invoke void @_ZNSt7__cxx1112basic_stringIcSt11char_traitsIcESaIcEEC1EPKcRKS3_(ptr noundef nonnull align 8 dereferenceable(32) %9, ptr noundef @.str.13, ptr noundef nonnull align 1 dereferenceable(1) %10)
          to label %50 unwind label %58

50:                                               ; preds = %46
  %51 = load ptr, ptr %7, align 8
  %52 = load ptr, ptr %51, align 8
  %53 = getelementptr inbounds ptr, ptr %52, i64 2
  %54 = load ptr, ptr %53, align 8
  %55 = call noundef ptr %54(ptr noundef nonnull align 8 dereferenceable(40) %51) #15
  invoke void @_ZStplIcSt11char_traitsIcESaIcEENSt7__cxx1112basic_stringIT_T0_T1_EEOS8_PKS5_(ptr dead_on_unwind writable sret(%"class.std::__cxx11::basic_string") align 8 %8, ptr noundef nonnull align 8 dereferenceable(32) %9, ptr noundef %55)
          to label %56 unwind label %62

56:                                               ; preds = %50
  invoke void @_ZN5osgeo4proj2io19FormattingExceptionC1ERKNSt7__cxx1112basic_stringIcSt11char_traitsIcESaIcEEE(ptr noundef nonnull align 8 dereferenceable(40) %49, ptr noundef nonnull align 8 dereferenceable(32) %8)
          to label %57 unwind label %66

57:                                               ; preds = %56
  store i1 false, ptr %11, align 1
  invoke void @__cxa_throw(ptr %49, ptr @_ZTIN5osgeo4proj2io19FormattingExceptionE, ptr @_ZN5osgeo4proj2io19FormattingExceptionD1Ev) #19
          to label %85 unwind label %66

58:                                               ; preds = %46
  %59 = landingpad { ptr, i32 }
          cleanup
  %60 = extractvalue { ptr, i32 } %59, 0
  store ptr %60, ptr %5, align 8
  %61 = extractvalue { ptr, i32 } %59, 1
  store i32 %61, ptr %6, align 4
  br label %71

62:                                               ; preds = %50
  %63 = landingpad { ptr, i32 }
          cleanup
  %64 = extractvalue { ptr, i32 } %63, 0
  store ptr %64, ptr %5, align 8
  %65 = extractvalue { ptr, i32 } %63, 1
  store i32 %65, ptr %6, align 4
  br label %70

66:                                               ; preds = %57, %56
  %67 = landingpad { ptr, i32 }
          cleanup
  %68 = extractvalue { ptr, i32 } %67, 0
  store ptr %68, ptr %5, align 8
  %69 = extractvalue { ptr, i32 } %67, 1
  store i32 %69, ptr %6, align 4
  call void @_ZNSt7__cxx1112basic_stringIcSt11char_traitsIcESaIcEED1Ev(ptr noundef nonnull align 8 dereferenceable(32) %8) #15
  br label %70

70:                                               ; preds = %66, %62
  call void @_ZNSt7__cxx1112basic_stringIcSt11char_traitsIcESaIcEED1Ev(ptr noundef nonnull align 8 dereferenceable(32) %9) #15
  br label %71

71:                                               ; preds = %70, %58
  call void @_ZNSaIcED1Ev(ptr noundef nonnull align 1 dereferenceable(1) %10) #15
  %72 = load i1, ptr %11, align 1
  br i1 %72, label %73, label %74

73:                                               ; preds = %71
  call void @__cxa_free_exception(ptr %49) #15
  br label %74

74:                                               ; preds = %73, %71
  invoke void @__cxa_end_catch()
          to label %75 unwind label %82

75:                                               ; preds = %74
  br label %77

76:                                               ; preds = %37, %33
  ret void

77:                                               ; preds = %75, %42
  %78 = load ptr, ptr %5, align 8
  %79 = load i32, ptr %6, align 4
  %80 = insertvalue { ptr, i32 } poison, ptr %78, 0
  %81 = insertvalue { ptr, i32 } %80, i32 %79, 1
  resume { ptr, i32 } %81

82:                                               ; preds = %74
  %83 = landingpad { ptr, i32 }
          catch ptr null
  %84 = extractvalue { ptr, i32 } %83, 0
  call void @__clang_call_terminate(ptr %84) #17
  unreachable

85:                                               ; preds = %57
  unreachable
}