; Function Attrs: mustprogress uwtable
define hidden void @_ZNK5osgeo4proj9operation18PROJBasedOperation19_exportToPROJStringEPNS0_2io19PROJStringFormatterE(ptr noundef nonnull align 8 dereferenceable(65) %0, ptr noundef %1) unnamed_addr #4 align 2 personality ptr @__gxx_personality_v0 {
  %3 = alloca %"class.std::__cxx11::basic_string", align 8
  %4 = alloca %"class.std::__cxx11::basic_string", align 8
  %5 = alloca %"class.std::allocator", align 1
  %6 = getelementptr inbounds i8, ptr %0, i64 48
  %7 = load ptr, ptr %6, align 8
  %.not = icmp eq ptr %7, null
  br i1 %.not, label %21, label %8

8:                                                ; preds = %2
  %9 = getelementptr inbounds i8, ptr %0, i64 64
  %10 = load i8, ptr %9, align 8
  %11 = trunc i8 %10 to i1
  br i1 %11, label %12, label %13

12:                                               ; preds = %8
  tail call void @_ZN5osgeo4proj2io19PROJStringFormatter14startInversionEv(ptr noundef nonnull align 8 dereferenceable(8) %1)
  %.pre = load ptr, ptr %6, align 8
  br label %13

13:                                               ; preds = %12, %8
  %14 = phi ptr [ %.pre, %12 ], [ %7, %8 ]
  %15 = load ptr, ptr %14, align 8
  %16 = getelementptr inbounds i8, ptr %15, i64 16
  %17 = load ptr, ptr %16, align 8
  tail call void %17(ptr noundef nonnull align 8 dereferenceable(8) %14, ptr noundef %1)
  %18 = load i8, ptr %9, align 8
  %19 = trunc i8 %18 to i1
  br i1 %19, label %20, label %48

20:                                               ; preds = %13
  tail call void @_ZN5osgeo4proj2io19PROJStringFormatter13stopInversionEv(ptr noundef nonnull align 8 dereferenceable(8) %1)
  br label %48

21:                                               ; preds = %2
  %22 = getelementptr inbounds i8, ptr %0, i64 16
  invoke void @_ZN5osgeo4proj2io19PROJStringFormatter16ingestPROJStringERKNSt7__cxx1112basic_stringIcSt11char_traitsIcESaIcEEE(ptr noundef nonnull align 8 dereferenceable(8) %1, ptr noundef nonnull align 8 dereferenceable(32) %22)
          to label %48 unwind label %23

23:                                               ; preds = %21
  %24 = landingpad { ptr, i32 }
          catch ptr @_ZTIN5osgeo4proj2io16ParsingExceptionE
  %25 = extractvalue { ptr, i32 } %24, 1
  %26 = tail call i32 @llvm.eh.typeid.for(ptr nonnull @_ZTIN5osgeo4proj2io16ParsingExceptionE) #14
  %27 = icmp eq i32 %25, %26
  br i1 %27, label %28, label %49

28:                                               ; preds = %23
  %29 = extractvalue { ptr, i32 } %24, 0
  %30 = tail call ptr @__cxa_begin_catch(ptr %29) #14
  %31 = tail call ptr @__cxa_allocate_exception(i64 40) #14
  call void @_ZNSaIcEC1Ev(ptr noundef nonnull align 1 dereferenceable(1) %5) #14
  invoke void @_ZNSt7__cxx1112basic_stringIcSt11char_traitsIcESaIcEEC1EPKcRKS3_(ptr noundef nonnull align 8 dereferenceable(32) %4, ptr noundef nonnull @.str.13, ptr noundef nonnull align 1 dereferenceable(1) %5)
          to label %32 unwind label %.thread

32:                                               ; preds = %28
  %33 = load ptr, ptr %30, align 8
  %34 = getelementptr inbounds i8, ptr %33, i64 16
  %35 = load ptr, ptr %34, align 8
  %36 = call noundef ptr %35(ptr noundef nonnull align 8 dereferenceable(40) %30) #14
  %37 = invoke noundef nonnull align 8 dereferenceable(32) ptr @_ZNSt7__cxx1112basic_stringIcSt11char_traitsIcESaIcEE6appendEPKc(ptr noundef nonnull align 8 dereferenceable(32) %4, ptr noundef %36)
          to label %38 unwind label %41

38:                                               ; preds = %32
  call void @_ZNSt7__cxx1112basic_stringIcSt11char_traitsIcESaIcEEC1EOS4_(ptr noundef nonnull align 8 dereferenceable(32) %3, ptr noundef nonnull align 8 dereferenceable(32) %37) #14
  invoke void @_ZN5osgeo4proj2io19FormattingExceptionC1ERKNSt7__cxx1112basic_stringIcSt11char_traitsIcESaIcEEE(ptr noundef nonnull align 8 dereferenceable(40) %31, ptr noundef nonnull align 8 dereferenceable(32) %3)
          to label %39 unwind label %43

39:                                               ; preds = %38
  invoke void @__cxa_throw(ptr nonnull %31, ptr nonnull @_ZTIN5osgeo4proj2io19FormattingExceptionE, ptr nonnull @_ZN5osgeo4proj2io19FormattingExceptionD1Ev) #17
          to label %53 unwind label %43

.thread:                                          ; preds = %28
  %40 = landingpad { ptr, i32 }
          cleanup
  call void @_ZNSaIcED1Ev(ptr noundef nonnull align 1 dereferenceable(1) %5) #14
  br label %46

41:                                               ; preds = %32
  %42 = landingpad { ptr, i32 }
          cleanup
  br label %45

43:                                               ; preds = %39, %38
  %.0 = phi i1 [ false, %39 ], [ true, %38 ]
  %44 = landingpad { ptr, i32 }
          cleanup
  call void @_ZNSt7__cxx1112basic_stringIcSt11char_traitsIcESaIcEED1Ev(ptr noundef nonnull align 8 dereferenceable(32) %3) #14
  br label %45

45:                                               ; preds = %41, %43
  %.pn = phi { ptr, i32 } [ %44, %43 ], [ %42, %41 ]
  %.1 = phi i1 [ %.0, %43 ], [ true, %41 ]
  call void @_ZNSt7__cxx1112basic_stringIcSt11char_traitsIcESaIcEED1Ev(ptr noundef nonnull align 8 dereferenceable(32) %4) #14
  call void @_ZNSaIcED1Ev(ptr noundef nonnull align 1 dereferenceable(1) %5) #14
  br i1 %.1, label %46, label %47

46:                                               ; preds = %.thread, %45
  %.pn.pn22 = phi { ptr, i32 } [ %40, %.thread ], [ %.pn, %45 ]
  call void @__cxa_free_exception(ptr %31) #14
  br label %47

47:                                               ; preds = %46, %45
  %.pn.pn21 = phi { ptr, i32 } [ %.pn.pn22, %46 ], [ %.pn, %45 ]
  invoke void @__cxa_end_catch()
          to label %49 unwind label %50

48:                                               ; preds = %21, %13, %20
  ret void

49:                                               ; preds = %47, %23
  %.merged = phi { ptr, i32 } [ %.pn.pn21, %47 ], [ %24, %23 ]
  resume { ptr, i32 } %.merged

50:                                               ; preds = %47
  %51 = landingpad { ptr, i32 }
          catch ptr null
  %52 = extractvalue { ptr, i32 } %51, 0
  call void @__clang_call_terminate(ptr %52) #18
  unreachable

53:                                               ; preds = %39
  unreachable
}